target datalayout = "e-m:e-p270:32:32-p271:32:32-p272:64:64-i64:64-i128:128-f80:128-n8:16:32:64-S128"
target triple = "x86_64-pc-linux-gnu"

%struct.black_TWorker_ = type { i32, i32, i32, i32, i32, ptr, ptr, ptr, ptr, i32, i8, i64, i64, i64, i64, i16, i32, ptr, ptr, ptr, i32, %struct.FT_Outline_, i32, i32, i32, ptr, ptr, ptr, ptr, ptr, ptr }
%struct.FT_Outline_ = type { i16, i16, ptr, ptr, ptr, i32 }

; Function Attrs: nounwind uwtable
define internal signext i8 @Line_Down(ptr noundef %0, i64 noundef %1, i64 noundef %2, i64 noundef %3, i64 noundef %4, i64 noundef %5, i64 noundef %6) #0 {
  %8 = alloca ptr, align 8
  %9 = alloca i64, align 8
  %10 = alloca i64, align 8
  %11 = alloca i64, align 8
  %12 = alloca i64, align 8
  %13 = alloca i64, align 8
  %14 = alloca i64, align 8
  store ptr %0, ptr %8, align 8, !tbaa !105
  store i64 %1, ptr %9, align 8, !tbaa !23
  store i64 %2, ptr %10, align 8, !tbaa !23
  store i64 %3, ptr %11, align 8, !tbaa !23
  store i64 %4, ptr %12, align 8, !tbaa !23
  store i64 %5, ptr %13, align 8, !tbaa !23
  store i64 %6, ptr %14, align 8, !tbaa !23
  %15 = load ptr, ptr %8, align 8, !tbaa !105
  %16 = load i64, ptr %9, align 8, !tbaa !23
  %17 = load i64, ptr %10, align 8, !tbaa !23
  %18 = sub nsw i64 0, %17
  %19 = load i64, ptr %11, align 8, !tbaa !23
  %20 = load i64, ptr %12, align 8, !tbaa !23
  %21 = sub nsw i64 0, %20
  %22 = load i64, ptr %14, align 8, !tbaa !23
  %23 = sub nsw i64 0, %22
  %24 = load i64, ptr %13, align 8, !tbaa !23
  %25 = sub nsw i64 0, %24
  %26 = call signext i8 @Line_Up(ptr noundef %15, i64 noundef %16, i64 noundef %18, i64 noundef %19, i64 noundef %21, i64 noundef %23, i64 noundef %25)
  ret i8 %26
}

; Function Attrs: nounwind uwtable
define internal signext i8 @Line_To(ptr noundef %0, i64 noundef %1, i64 noundef %2) #0 {
  %4 = alloca i8, align 1
  %5 = alloca ptr, align 8
  %6 = alloca i64, align 8
  %7 = alloca i64, align 8
  %8 = alloca i32, align 4
  %9 = alloca i32, align 4
  store ptr %0, ptr %5, align 8, !tbaa !105
  store i64 %1, ptr %6, align 8, !tbaa !23
  store i64 %2, ptr %7, align 8, !tbaa !23
  call void @llvm.lifetime.start.p0(i64 4, ptr %8) #5
  %10 = load i64, ptr %7, align 8, !tbaa !23
  %11 = load ptr, ptr %5, align 8, !tbaa !105
  %12 = getelementptr inbounds nuw %struct.black_TWorker_, ptr %11, i32 0, i32 12
  %13 = load i64, ptr %12, align 8, !tbaa !137
  %14 = icmp eq i64 %10, %13
  br i1 %14, label %15, label %16

15:                                               ; preds = %3
  br label %90

16:                                               ; preds = %3
  %17 = load ptr, ptr %5, align 8, !tbaa !105
  %18 = getelementptr inbounds nuw %struct.black_TWorker_, ptr %17, i32 0, i32 12
  %19 = load i64, ptr %18, align 8, !tbaa !137
  %20 = load i64, ptr %7, align 8, !tbaa !23
  %21 = icmp slt i64 %19, %20
  %22 = select i1 %21, i32 1, i32 2
  store i32 %22, ptr %8, align 4, !tbaa !15
  %23 = load ptr, ptr %5, align 8, !tbaa !105
  %24 = getelementptr inbounds nuw %struct.black_TWorker_, ptr %23, i32 0, i32 20
  %25 = load i32, ptr %24, align 8, !tbaa !134
  %26 = load i32, ptr %8, align 4, !tbaa !15
  %27 = icmp ne i32 %25, %26
  br i1 %27, label %28, label %46

28:                                               ; preds = %16
  %29 = load ptr, ptr %5, align 8, !tbaa !105
  %30 = getelementptr inbounds nuw %struct.black_TWorker_, ptr %29, i32 0, i32 20
  %31 = load i32, ptr %30, align 8, !tbaa !134
  %32 = icmp ne i32 %31, 0
  br i1 %32, label %33, label %39

33:                                               ; preds = %28
  %34 = load ptr, ptr %5, align 8, !tbaa !105
  %35 = call signext i8 @End_Profile(ptr noundef %34)
  %36 = sext i8 %35 to i32
  %37 = icmp ne i32 %36, 0
  br i1 %37, label %38, label %39

38:                                               ; preds = %33
  br label %97

39:                                               ; preds = %33, %28
  %40 = load ptr, ptr %5, align 8, !tbaa !105
  %41 = load i32, ptr %8, align 4, !tbaa !15
  %42 = call signext i8 @New_Profile(ptr noundef %40, i32 noundef %41)
  %43 = icmp ne i8 %42, 0
  br i1 %43, label %44, label %45

44:                                               ; preds = %39
  br label %97

45:                                               ; preds = %39
  br label %46

46:                                               ; preds = %45, %16
  %47 = load i32, ptr %8, align 4, !tbaa !15
  %48 = icmp eq i32 %47, 1
  br i1 %48, label %49, label %69

49:                                               ; preds = %46
  %50 = load ptr, ptr %5, align 8, !tbaa !105
  %51 = load ptr, ptr %5, align 8, !tbaa !105
  %52 = getelementptr inbounds nuw %struct.black_TWorker_, ptr %51, i32 0, i32 11
  %53 = load i64, ptr %52, align 8, !tbaa !158
  %54 = load ptr, ptr %5, align 8, !tbaa !105
  %55 = getelementptr inbounds nuw %struct.black_TWorker_, ptr %54, i32 0, i32 12
  %56 = load i64, ptr %55, align 8, !tbaa !137
  %57 = load i64, ptr %6, align 8, !tbaa !23
  %58 = load i64, ptr %7, align 8, !tbaa !23
  %59 = load ptr, ptr %5, align 8, !tbaa !105
  %60 = getelementptr inbounds nuw %struct.black_TWorker_, ptr %59, i32 0, i32 13
  %61 = load i64, ptr %60, align 8, !tbaa !124
  %62 = load ptr, ptr %5, align 8, !tbaa !105
  %63 = getelementptr inbounds nuw %struct.black_TWorker_, ptr %62, i32 0, i32 14
  %64 = load i64, ptr %63, align 8, !tbaa !125
  %65 = call signext i8 @Line_Up(ptr noundef %50, i64 noundef %53, i64 noundef %56, i64 noundef %57, i64 noundef %58, i64 noundef %61, i64 noundef %64)
  %66 = icmp ne i8 %65, 0
  br i1 %66, label %67, label %68

67:                                               ; preds = %49
  br label %97

68:                                               ; preds = %49
  br label %89

69:                                               ; preds = %46
  %70 = load ptr, ptr %5, align 8, !tbaa !105
  %71 = load ptr, ptr %5, align 8, !tbaa !105
  %72 = getelementptr inbounds nuw %struct.black_TWorker_, ptr %71, i32 0, i32 11
  %73 = load i64, ptr %72, align 8, !tbaa !158
  %74 = load ptr, ptr %5, align 8, !tbaa !105
  %75 = getelementptr inbounds nuw %struct.black_TWorker_, ptr %74, i32 0, i32 12
  %76 = load i64, ptr %75, align 8, !tbaa !137
  %77 = load i64, ptr %6, align 8, !tbaa !23
  %78 = load i64, ptr %7, align 8, !tbaa !23
  %79 = load ptr, ptr %5, align 8, !tbaa !105
  %80 = getelementptr inbounds nuw %struct.black_TWorker_, ptr %79, i32 0, i32 13
  %81 = load i64, ptr %80, align 8, !tbaa !124
  %82 = load ptr, ptr %5, align 8, !tbaa !105
  %83 = getelementptr inbounds nuw %struct.black_TWorker_, ptr %82, i32 0, i32 14
  %84 = load i64, ptr %83, align 8, !tbaa !125
  %85 = call signext i8 @Line_Down(ptr noundef %70, i64 noundef %73, i64 noundef %76, i64 noundef %77, i64 noundef %78, i64 noundef %81, i64 noundef %84)
  %86 = icmp ne i8 %85, 0
  br i1 %86, label %87, label %88

87:                                               ; preds = %69
  br label %97

88:                                               ; preds = %69
  br label %89

89:                                               ; preds = %88, %68
  br label %90

90:                                               ; preds = %89, %15
  %91 = load i64, ptr %6, align 8, !tbaa !23
  %92 = load ptr, ptr %5, align 8, !tbaa !105
  %93 = getelementptr inbounds nuw %struct.black_TWorker_, ptr %92, i32 0, i32 11
  store i64 %91, ptr %93, align 8, !tbaa !158
  %94 = load i64, ptr %7, align 8, !tbaa !23
  %95 = load ptr, ptr %5, align 8, !tbaa !105
  %96 = getelementptr inbounds nuw %struct.black_TWorker_, ptr %95, i32 0, i32 12
  store i64 %94, ptr %96, align 8, !tbaa !137
  store i8 0, ptr %4, align 1
  store i32 1, ptr %9, align 4
  br label %98

97:                                               ; preds = %87, %67, %44, %38
  store i8 1, ptr %4, align 1
  store i32 1, ptr %9, align 4
  br label %98

98:                                               ; preds = %97, %90
  call void @llvm.lifetime.end.p0(i64 4, ptr %8) #5
  %99 = load i8, ptr %4, align 1
  ret i8 %99
}