; Function Attrs: nounwind uwtable
define internal fastcc signext range(i8 0, 2) i8 @Line_To(ptr noundef nonnull captures(none) %0, i64 noundef %1, i64 noundef %2) unnamed_addr #0 {
  %4 = getelementptr inbounds nuw i8, ptr %0, i64 72
  %5 = load i64, ptr %4, align 8, !tbaa !112
  %6 = icmp eq i64 %2, %5
  br i1 %6, label %33, label %7

7:                                                ; preds = %3
  %8 = icmp slt i64 %5, %2
  %9 = select i1 %8, i32 1, i32 2
  %10 = getelementptr inbounds nuw i8, ptr %0, i64 128
  %11 = load i32, ptr %10, align 8, !tbaa !105
  %.not = icmp eq i32 %11, %9
  br i1 %.not, label %17, label %12

12:                                               ; preds = %7
  %.not33 = icmp eq i32 %11, 0
  br i1 %.not33, label %15, label %13

13:                                               ; preds = %12
  %14 = tail call fastcc signext i8 @End_Profile(ptr noundef %0)
  %.not34 = icmp eq i8 %14, 0
  br i1 %.not34, label %15, label %35

15:                                               ; preds = %13, %12
  %16 = tail call fastcc signext i8 @New_Profile(ptr noundef %0, i32 noundef %9)
  %.not35 = icmp eq i8 %16, 0
  br i1 %.not35, label %17, label %35

17:                                               ; preds = %15, %7
  %18 = getelementptr inbounds nuw i8, ptr %0, i64 64
  %19 = load i64, ptr %18, align 8, !tbaa !111
  %20 = load i64, ptr %4, align 8, !tbaa !112
  %21 = getelementptr inbounds nuw i8, ptr %0, i64 80
  %22 = load i64, ptr %21, align 8, !tbaa !97
  %23 = getelementptr inbounds nuw i8, ptr %0, i64 88
  %24 = load i64, ptr %23, align 8, !tbaa !98
  br i1 %8, label %25, label %27

25:                                               ; preds = %17
  %26 = tail call fastcc signext i8 @Line_Up(ptr noundef %0, i64 noundef %19, i64 noundef %20, i64 noundef %1, i64 noundef %2, i64 noundef %22, i64 noundef %24)
  %.not37 = icmp eq i8 %26, 0
  br i1 %.not37, label %33, label %35

27:                                               ; preds = %17
  %28 = sub nsw i64 0, %20
  %29 = sub nsw i64 0, %2
  %30 = sub nsw i64 0, %24
  %31 = sub nsw i64 0, %22
  %32 = tail call fastcc signext range(i8 0, 2) i8 @Line_Up(ptr noundef nonnull %0, i64 noundef %19, i64 noundef %28, i64 noundef %1, i64 noundef %29, i64 noundef %30, i64 noundef %31)
  %.not36 = icmp eq i8 %32, 0
  br i1 %.not36, label %33, label %35

33:                                               ; preds = %25, %27, %3
  %34 = getelementptr inbounds nuw i8, ptr %0, i64 64
  store i64 %1, ptr %34, align 8, !tbaa !111
  store i64 %2, ptr %4, align 8, !tbaa !112
  br label %35

35:                                               ; preds = %13, %15, %25, %27, %33
  %.0 = phi i8 [ 0, %33 ], [ 1, %27 ], [ 1, %25 ], [ 1, %15 ], [ 1, %13 ]
  ret i8 %.0
}